; ModuleID = '46/1879.c'
source_filename = "46/1879.c"
target datalayout = "e-m:e-p270:32:32-p271:32:32-p272:64:64-i64:64-f80:128-n8:16:32:64-S128"
target triple = "x86_64-pc-linux-gnu"

@.str = private unnamed_addr constant [5 x i8] c"%d%d\00", align 1
@.str.1 = private unnamed_addr constant [3 x i8] c"%d\00", align 1
@.str.2 = private unnamed_addr constant [4 x i8] c"%d\0A\00", align 1

; Function Attrs: noinline nounwind uwtable
define dso_local i32 @main() #0 {
  %1 = alloca i32, align 4
  %2 = alloca i32, align 4
  %3 = alloca i32, align 4
  %4 = alloca i32, align 4
  %5 = alloca i32, align 4
  %6 = alloca i32, align 4
  %7 = alloca i32, align 4
  %8 = alloca i32, align 4
  %9 = alloca i32, align 4
  %10 = alloca [100 x [100 x i32]], align 16
  store i32 0, i32* %1, align 4
  %11 = call i32 (i8*, ...) @__isoc99_scanf(i8* getelementptr inbounds ([5 x i8], [5 x i8]* @.str, i64 0, i64 0), i32* %2, i32* %3)
  store i32 0, i32* %4, align 4
  br label %12

12:                                               ; preds = %33, %0
  %13 = load i32, i32* %4, align 4
  %14 = load i32, i32* %2, align 4
  %15 = icmp slt i32 %13, %14
  br i1 %15, label %16, label %36

16:                                               ; preds = %12
  store i32 0, i32* %5, align 4
  br label %17

17:                                               ; preds = %29, %16
  %18 = load i32, i32* %5, align 4
  %19 = load i32, i32* %3, align 4
  %20 = icmp slt i32 %18, %19
  br i1 %20, label %21, label %32

21:                                               ; preds = %17
  %22 = load i32, i32* %4, align 4
  %23 = sext i32 %22 to i64
  %24 = getelementptr inbounds [100 x [100 x i32]], [100 x [100 x i32]]* %10, i64 0, i64 %23
  %25 = load i32, i32* %5, align 4
  %26 = sext i32 %25 to i64
  %27 = getelementptr inbounds [100 x i32], [100 x i32]* %24, i64 0, i64 %26
  %28 = call i32 (i8*, ...) @__isoc99_scanf(i8* getelementptr inbounds ([3 x i8], [3 x i8]* @.str.1, i64 0, i64 0), i32* %27)
  br label %29

29:                                               ; preds = %21
  %30 = load i32, i32* %5, align 4
  %31 = add nsw i32 %30, 1
  store i32 %31, i32* %5, align 4
  br label %17

32:                                               ; preds = %17
  br label %33

33:                                               ; preds = %32
  %34 = load i32, i32* %4, align 4
  %35 = add nsw i32 %34, 1
  store i32 %35, i32* %4, align 4
  br label %12

36:                                               ; preds = %12
  store i32 0, i32* %6, align 4
  store i32 0, i32* %5, align 4
  store i32 0, i32* %7, align 4
  store i32 0, i32* %9, align 4
  store i32 0, i32* %4, align 4
  br label %37

37:                                               ; preds = %204, %36
  %38 = load i32, i32* %4, align 4
  %39 = load i32, i32* %2, align 4
  %40 = icmp slt i32 %38, %39
  br i1 %40, label %41, label %207

41:                                               ; preds = %37
  %42 = load i32, i32* %4, align 4
  store i32 %42, i32* %5, align 4
  br label %43

43:                                               ; preds = %74, %41
  %44 = load i32, i32* %5, align 4
  %45 = load i32, i32* %3, align 4
  %46 = load i32, i32* %4, align 4
  %47 = sub nsw i32 %45, %46
  %48 = icmp slt i32 %44, %47
  br i1 %48, label %49, label %77

49:                                               ; preds = %43
  %50 = load i32, i32* %9, align 4
  %51 = load i32, i32* %2, align 4
  %52 = load i32, i32* %3, align 4
  %53 = mul nsw i32 %51, %52
  %54 = icmp eq i32 %50, %53
  br i1 %54, label %55, label %56

55:                                               ; preds = %49
  br label %77

56:                                               ; preds = %49
  %57 = load i32, i32* %4, align 4
  %58 = sext i32 %57 to i64
  %59 = getelementptr inbounds [100 x [100 x i32]], [100 x [100 x i32]]* %10, i64 0, i64 %58
  %60 = load i32, i32* %5, align 4
  %61 = sext i32 %60 to i64
  %62 = getelementptr inbounds [100 x i32], [100 x i32]* %59, i64 0, i64 %61
  %63 = load i32, i32* %62, align 4
  %64 = call i32 (i8*, ...) @printf(i8* getelementptr inbounds ([4 x i8], [4 x i8]* @.str.2, i64 0, i64 0), i32 %63)
  %65 = load i32, i32* %9, align 4
  %66 = add nsw i32 %65, 1
  store i32 %66, i32* %9, align 4
  %67 = load i32, i32* %9, align 4
  %68 = load i32, i32* %2, align 4
  %69 = load i32, i32* %3, align 4
  %70 = mul nsw i32 %68, %69
  %71 = icmp eq i32 %67, %70
  br i1 %71, label %72, label %73

72:                                               ; preds = %56
  br label %77

73:                                               ; preds = %56
  br label %74

74:                                               ; preds = %73
  %75 = load i32, i32* %5, align 4
  %76 = add nsw i32 %75, 1
  store i32 %76, i32* %5, align 4
  br label %43

77:                                               ; preds = %72, %55, %43
  %78 = load i32, i32* %3, align 4
  %79 = load i32, i32* %4, align 4
  %80 = sub nsw i32 %78, %79
  %81 = sub nsw i32 %80, 1
  store i32 %81, i32* %5, align 4
  %82 = load i32, i32* %4, align 4
  %83 = add nsw i32 %82, 1
  store i32 %83, i32* %6, align 4
  br label %84

84:                                               ; preds = %115, %77
  %85 = load i32, i32* %6, align 4
  %86 = load i32, i32* %2, align 4
  %87 = load i32, i32* %4, align 4
  %88 = sub nsw i32 %86, %87
  %89 = icmp slt i32 %85, %88
  br i1 %89, label %90, label %118

90:                                               ; preds = %84
  %91 = load i32, i32* %9, align 4
  %92 = load i32, i32* %2, align 4
  %93 = load i32, i32* %3, align 4
  %94 = mul nsw i32 %92, %93
  %95 = icmp eq i32 %91, %94
  br i1 %95, label %96, label %97

96:                                               ; preds = %90
  br label %118

97:                                               ; preds = %90
  %98 = load i32, i32* %6, align 4
  %99 = sext i32 %98 to i64
  %100 = getelementptr inbounds [100 x [100 x i32]], [100 x [100 x i32]]* %10, i64 0, i64 %99
  %101 = load i32, i32* %5, align 4
  %102 = sext i32 %101 to i64
  %103 = getelementptr inbounds [100 x i32], [100 x i32]* %100, i64 0, i64 %102
  %104 = load i32, i32* %103, align 4
  %105 = call i32 (i8*, ...) @printf(i8* getelementptr inbounds ([4 x i8], [4 x i8]* @.str.2, i64 0, i64 0), i32 %104)
  %106 = load i32, i32* %9, align 4
  %107 = add nsw i32 %106, 1
  store i32 %107, i32* %9, align 4
  %108 = load i32, i32* %9, align 4
  %109 = load i32, i32* %2, align 4
  %110 = load i32, i32* %3, align 4
  %111 = mul nsw i32 %109, %110
  %112 = icmp eq i32 %108, %111
  br i1 %112, label %113, label %114

113:                                              ; preds = %97
  br label %118

114:                                              ; preds = %97
  br label %115

115:                                              ; preds = %114
  %116 = load i32, i32* %6, align 4
  %117 = add nsw i32 %116, 1
  store i32 %117, i32* %6, align 4
  br label %84

118:                                              ; preds = %113, %96, %84
  %119 = load i32, i32* %2, align 4
  %120 = load i32, i32* %4, align 4
  %121 = sub nsw i32 %119, %120
  %122 = sub nsw i32 %121, 1
  store i32 %122, i32* %8, align 4
  %123 = load i32, i32* %3, align 4
  %124 = load i32, i32* %4, align 4
  %125 = sub nsw i32 %123, %124
  %126 = sub nsw i32 %125, 2
  store i32 %126, i32* %5, align 4
  br label %127

127:                                              ; preds = %156, %118
  %128 = load i32, i32* %5, align 4
  %129 = load i32, i32* %4, align 4
  %130 = icmp sge i32 %128, %129
  br i1 %130, label %131, label %159

131:                                              ; preds = %127
  %132 = load i32, i32* %9, align 4
  %133 = load i32, i32* %2, align 4
  %134 = load i32, i32* %3, align 4
  %135 = mul nsw i32 %133, %134
  %136 = icmp eq i32 %132, %135
  br i1 %136, label %137, label %138

137:                                              ; preds = %131
  br label %159

138:                                              ; preds = %131
  %139 = load i32, i32* %8, align 4
  %140 = sext i32 %139 to i64
  %141 = getelementptr inbounds [100 x [100 x i32]], [100 x [100 x i32]]* %10, i64 0, i64 %140
  %142 = load i32, i32* %5, align 4
  %143 = sext i32 %142 to i64
  %144 = getelementptr inbounds [100 x i32], [100 x i32]* %141, i64 0, i64 %143
  %145 = load i32, i32* %144, align 4
  %146 = call i32 (i8*, ...) @printf(i8* getelementptr inbounds ([4 x i8], [4 x i8]* @.str.2, i64 0, i64 0), i32 %145)
  %147 = load i32, i32* %9, align 4
  %148 = add nsw i32 %147, 1
  store i32 %148, i32* %9, align 4
  %149 = load i32, i32* %9, align 4
  %150 = load i32, i32* %2, align 4
  %151 = load i32, i32* %3, align 4
  %152 = mul nsw i32 %150, %151
  %153 = icmp eq i32 %149, %152
  br i1 %153, label %154, label %155

154:                                              ; preds = %138
  br label %159

155:                                              ; preds = %138
  br label %156

156:                                              ; preds = %155
  %157 = load i32, i32* %5, align 4
  %158 = add nsw i32 %157, -1
  store i32 %158, i32* %5, align 4
  br label %127

159:                                              ; preds = %154, %137, %127
  %160 = load i32, i32* %2, align 4
  %161 = load i32, i32* %4, align 4
  %162 = sub nsw i32 %160, %161
  %163 = sub nsw i32 %162, 2
  store i32 %163, i32* %7, align 4
  br label %164

164:                                              ; preds = %193, %159
  %165 = load i32, i32* %7, align 4
  %166 = load i32, i32* %4, align 4
  %167 = icmp sgt i32 %165, %166
  br i1 %167, label %168, label %196

168:                                              ; preds = %164
  %169 = load i32, i32* %9, align 4
  %170 = load i32, i32* %2, align 4
  %171 = load i32, i32* %3, align 4
  %172 = mul nsw i32 %170, %171
  %173 = icmp eq i32 %169, %172
  br i1 %173, label %174, label %175

174:                                              ; preds = %168
  br label %196

175:                                              ; preds = %168
  %176 = load i32, i32* %7, align 4
  %177 = sext i32 %176 to i64
  %178 = getelementptr inbounds [100 x [100 x i32]], [100 x [100 x i32]]* %10, i64 0, i64 %177
  %179 = load i32, i32* %4, align 4
  %180 = sext i32 %179 to i64
  %181 = getelementptr inbounds [100 x i32], [100 x i32]* %178, i64 0, i64 %180
  %182 = load i32, i32* %181, align 4
  %183 = call i32 (i8*, ...) @printf(i8* getelementptr inbounds ([4 x i8], [4 x i8]* @.str.2, i64 0, i64 0), i32 %182)
  %184 = load i32, i32* %9, align 4
  %185 = add nsw i32 %184, 1
  store i32 %185, i32* %9, align 4
  %186 = load i32, i32* %9, align 4
  %187 = load i32, i32* %2, align 4
  %188 = load i32, i32* %3, align 4
  %189 = mul nsw i32 %187, %188
  %190 = icmp eq i32 %186, %189
  br i1 %190, label %191, label %192

191:                                              ; preds = %175
  br label %196

192:                                              ; preds = %175
  br label %193

193:                                              ; preds = %192
  %194 = load i32, i32* %7, align 4
  %195 = add nsw i32 %194, -1
  store i32 %195, i32* %7, align 4
  br label %164

196:                                              ; preds = %191, %174, %164
  %197 = load i32, i32* %9, align 4
  %198 = load i32, i32* %2, align 4
  %199 = load i32, i32* %3, align 4
  %200 = mul nsw i32 %198, %199
  %201 = icmp eq i32 %197, %200
  br i1 %201, label %202, label %203

202:                                              ; preds = %196
  br label %207

203:                                              ; preds = %196
  br label %204

204:                                              ; preds = %203
  %205 = load i32, i32* %4, align 4
  %206 = add nsw i32 %205, 1
  store i32 %206, i32* %4, align 4
  br label %37

207:                                              ; preds = %202, %37
  ret i32 0
}

declare dso_local i32 @__isoc99_scanf(i8*, ...) #1

declare dso_local i32 @printf(i8*, ...) #1


!llvm.module.flags = !{!0}
!llvm.ident = !{!1}

!0 = !{i32 1, !"wchar_size", i32 4}
!1 = !{!"clang version 10.0.0-4ubuntu1 "}
